target datalayout = "e-m:e-p270:32:32-p271:32:32-p272:64:64-i64:64-i128:128-f80:128-n8:16:32:64-S128"
target triple = "x86_64-pc-linux-gnu"

%struct.Gla_Man_t_ = type { ptr, ptr, ptr, ptr, ptr, ptr, ptr, i32, i32, i32, i32, i32, ptr, ptr, ptr, ptr, ptr, ptr, ptr, i32, ptr, ptr, ptr, i64, i64, i64, i64, i64 }
%struct.Gla_Obj_t_ = type { i32, i32, [4 x i32], %struct.Vec_Int_t_ }
%struct.Vec_Int_t_ = type { i32, i32, ptr }

; Function Attrs: inlinehint nounwind uwtable
define internal void @Vec_IntShrink(ptr noundef %0, i32 noundef %1) #2 {
  %3 = alloca ptr, align 8
  %4 = alloca i32, align 4
  store ptr %0, ptr %3, align 8, !tbaa !12
  store i32 %1, ptr %4, align 4, !tbaa !14
  %5 = load i32, ptr %4, align 4, !tbaa !14
  %6 = load ptr, ptr %3, align 8, !tbaa !12
  %7 = getelementptr inbounds nuw %struct.Vec_Int_t_, ptr %6, i32 0, i32 1
  store i32 %5, ptr %7, align 4, !tbaa !46
  ret void
}

; Function Attrs: inlinehint nounwind uwtable
define internal void @Vec_IntWriteEntry(ptr noundef %0, i32 noundef %1, i32 noundef %2) #2 {
  %4 = alloca ptr, align 8
  %5 = alloca i32, align 4
  %6 = alloca i32, align 4
  store ptr %0, ptr %4, align 8, !tbaa !12
  store i32 %1, ptr %5, align 4, !tbaa !14
  store i32 %2, ptr %6, align 4, !tbaa !14
  %7 = load i32, ptr %6, align 4, !tbaa !14
  %8 = load ptr, ptr %4, align 8, !tbaa !12
  %9 = getelementptr inbounds nuw %struct.Vec_Int_t_, ptr %8, i32 0, i32 2
  %10 = load ptr, ptr %9, align 8, !tbaa !48
  %11 = load i32, ptr %5, align 4, !tbaa !14
  %12 = sext i32 %11 to i64
  %13 = getelementptr inbounds i32, ptr %10, i64 %12
  store i32 %7, ptr %13, align 4, !tbaa !14
  ret void
}

; Function Attrs: inlinehint nounwind uwtable
define internal ptr @Gla_ManObj(ptr noundef %0, i32 noundef %1) #2 {
  %3 = alloca ptr, align 8
  %4 = alloca i32, align 4
  store ptr %0, ptr %3, align 8, !tbaa !3
  store i32 %1, ptr %4, align 4, !tbaa !14
  %5 = load i32, ptr %4, align 4, !tbaa !14
  %6 = icmp ne i32 %5, 0
  br i1 %6, label %7, label %14

7:                                                ; preds = %2
  %8 = load ptr, ptr %3, align 8, !tbaa !3
  %9 = getelementptr inbounds nuw %struct.Gla_Man_t_, ptr %8, i32 0, i32 5
  %10 = load ptr, ptr %9, align 8, !tbaa !49
  %11 = load i32, ptr %4, align 4, !tbaa !14
  %12 = sext i32 %11 to i64
  %13 = getelementptr inbounds %struct.Gla_Obj_t_, ptr %10, i64 %12
  br label %15

14:                                               ; preds = %2
  br label %15

15:                                               ; preds = %14, %7
  %16 = phi ptr [ %13, %7 ], [ null, %14 ]
  ret ptr %16
}

; Function Attrs: inlinehint nounwind uwtable
define internal i32 @Vec_IntEntry(ptr noundef %0, i32 noundef %1) #2 {
  %3 = alloca ptr, align 8
  %4 = alloca i32, align 4
  store ptr %0, ptr %3, align 8, !tbaa !12
  store i32 %1, ptr %4, align 4, !tbaa !14
  %5 = load ptr, ptr %3, align 8, !tbaa !12
  %6 = getelementptr inbounds nuw %struct.Vec_Int_t_, ptr %5, i32 0, i32 2
  %7 = load ptr, ptr %6, align 8, !tbaa !48
  %8 = load i32, ptr %4, align 4, !tbaa !14
  %9 = sext i32 %8 to i64
  %10 = getelementptr inbounds i32, ptr %7, i64 %9
  %11 = load i32, ptr %10, align 4, !tbaa !14
  ret i32 %11
}

; Function Attrs: inlinehint nounwind uwtable
define internal i32 @Vec_IntSize(ptr noundef %0) #2 {
  %2 = alloca ptr, align 8
  store ptr %0, ptr %2, align 8, !tbaa !12
  %3 = load ptr, ptr %2, align 8, !tbaa !12
  %4 = getelementptr inbounds nuw %struct.Vec_Int_t_, ptr %3, i32 0, i32 1
  %5 = load i32, ptr %4, align 4, !tbaa !46
  ret i32 %5
}

; Function Attrs: nounwind uwtable
define void @Gla_ManRollBack(ptr noundef %0) #0 {
  %2 = alloca ptr, align 8
  %3 = alloca i32, align 4
  %4 = alloca i32, align 4
  %5 = alloca i32, align 4
  store ptr %0, ptr %2, align 8, !tbaa !3
  call void @llvm.lifetime.start.p0(i64 4, ptr %3) #13
  call void @llvm.lifetime.start.p0(i64 4, ptr %4) #13
  call void @llvm.lifetime.start.p0(i64 4, ptr %5) #13
  store i32 0, ptr %3, align 4, !tbaa !14
  br label %6

6:                                                ; preds = %35, %1
  %7 = load i32, ptr %3, align 4, !tbaa !14
  %8 = add nsw i32 %7, 1
  %9 = load ptr, ptr %2, align 8, !tbaa !3
  %10 = getelementptr inbounds nuw %struct.Gla_Man_t_, ptr %9, i32 0, i32 15
  %11 = load ptr, ptr %10, align 8, !tbaa !143
  %12 = call i32 @Vec_IntSize(ptr noundef %11)
  %13 = icmp slt i32 %8, %12
  br i1 %13, label %14, label %27

14:                                               ; preds = %6
  %15 = load ptr, ptr %2, align 8, !tbaa !3
  %16 = getelementptr inbounds nuw %struct.Gla_Man_t_, ptr %15, i32 0, i32 15
  %17 = load ptr, ptr %16, align 8, !tbaa !143
  %18 = load i32, ptr %3, align 4, !tbaa !14
  %19 = call i32 @Vec_IntEntry(ptr noundef %17, i32 noundef %18)
  store i32 %19, ptr %4, align 4, !tbaa !14
  br i1 true, label %20, label %27

20:                                               ; preds = %14
  %21 = load ptr, ptr %2, align 8, !tbaa !3
  %22 = getelementptr inbounds nuw %struct.Gla_Man_t_, ptr %21, i32 0, i32 15
  %23 = load ptr, ptr %22, align 8, !tbaa !143
  %24 = load i32, ptr %3, align 4, !tbaa !14
  %25 = add nsw i32 %24, 1
  %26 = call i32 @Vec_IntEntry(ptr noundef %23, i32 noundef %25)
  store i32 %26, ptr %5, align 4, !tbaa !14
  br label %27

27:                                               ; preds = %20, %14, %6
  %28 = phi i1 [ false, %14 ], [ false, %6 ], [ true, %20 ]
  br i1 %28, label %29, label %38

29:                                               ; preds = %27
  %30 = load ptr, ptr %2, align 8, !tbaa !3
  %31 = load i32, ptr %4, align 4, !tbaa !14
  %32 = call ptr @Gla_ManObj(ptr noundef %30, i32 noundef %31)
  %33 = getelementptr inbounds nuw %struct.Gla_Obj_t_, ptr %32, i32 0, i32 3
  %34 = load i32, ptr %5, align 4, !tbaa !14
  call void @Vec_IntWriteEntry(ptr noundef %33, i32 noundef %34, i32 noundef 0)
  br label %35

35:                                               ; preds = %29
  %36 = load i32, ptr %3, align 4, !tbaa !14
  %37 = add nsw i32 %36, 2
  store i32 %37, ptr %3, align 4, !tbaa !14
  br label %6, !llvm.loop !214

38:                                               ; preds = %27
  %39 = load ptr, ptr %2, align 8, !tbaa !3
  %40 = getelementptr inbounds nuw %struct.Gla_Man_t_, ptr %39, i32 0, i32 8
  %41 = load i32, ptr %40, align 4, !tbaa !215
  store i32 %41, ptr %3, align 4, !tbaa !14
  br label %42

42:                                               ; preds = %65, %38
  %43 = load i32, ptr %3, align 4, !tbaa !14
  %44 = load ptr, ptr %2, align 8, !tbaa !3
  %45 = getelementptr inbounds nuw %struct.Gla_Man_t_, ptr %44, i32 0, i32 3
  %46 = load ptr, ptr %45, align 8, !tbaa !16
  %47 = call i32 @Vec_IntSize(ptr noundef %46)
  %48 = icmp slt i32 %43, %47
  br i1 %48, label %49, label %55

49:                                               ; preds = %42
  %50 = load ptr, ptr %2, align 8, !tbaa !3
  %51 = getelementptr inbounds nuw %struct.Gla_Man_t_, ptr %50, i32 0, i32 3
  %52 = load ptr, ptr %51, align 8, !tbaa !16
  %53 = load i32, ptr %3, align 4, !tbaa !14
  %54 = call i32 @Vec_IntEntry(ptr noundef %52, i32 noundef %53)
  store i32 %54, ptr %4, align 4, !tbaa !14
  br label %55

55:                                               ; preds = %49, %42
  %56 = phi i1 [ false, %42 ], [ true, %49 ]
  br i1 %56, label %57, label %68

57:                                               ; preds = %55
  %58 = load ptr, ptr %2, align 8, !tbaa !3
  %59 = load i32, ptr %4, align 4, !tbaa !14
  %60 = call ptr @Gla_ManObj(ptr noundef %58, i32 noundef %59)
  %61 = getelementptr inbounds nuw %struct.Gla_Obj_t_, ptr %60, i32 0, i32 1
  %62 = load i32, ptr %61, align 4
  %63 = and i32 %62, -2
  %64 = or i32 %63, 0
  store i32 %64, ptr %61, align 4
  br label %65

65:                                               ; preds = %57
  %66 = load i32, ptr %3, align 4, !tbaa !14
  %67 = add nsw i32 %66, 1
  store i32 %67, ptr %3, align 4, !tbaa !14
  br label %42, !llvm.loop !216

68:                                               ; preds = %55
  %69 = load ptr, ptr %2, align 8, !tbaa !3
  %70 = getelementptr inbounds nuw %struct.Gla_Man_t_, ptr %69, i32 0, i32 3
  %71 = load ptr, ptr %70, align 8, !tbaa !16
  %72 = load ptr, ptr %2, align 8, !tbaa !3
  %73 = getelementptr inbounds nuw %struct.Gla_Man_t_, ptr %72, i32 0, i32 8
  %74 = load i32, ptr %73, align 4, !tbaa !215
  call void @Vec_IntShrink(ptr noundef %71, i32 noundef %74)
  call void @llvm.lifetime.end.p0(i64 4, ptr %5) #13
  call void @llvm.lifetime.end.p0(i64 4, ptr %4) #13
  call void @llvm.lifetime.end.p0(i64 4, ptr %3) #13
  ret void
}