; Function Attrs: nofree norecurse nosync nounwind memory(readwrite, inaccessiblemem: write) uwtable
define void @Gla_ManRollBack(ptr noundef readonly captures(none) %0) local_unnamed_addr #12 {
  %2 = getelementptr inbounds nuw i8, ptr %0, i64 104
  %3 = load ptr, ptr %2, align 8, !tbaa !146
  %4 = getelementptr i8, ptr %3, i64 4
  %.val2229 = load i32, ptr %4, align 4, !tbaa !3
  %5 = icmp sgt i32 %.val2229, 1
  br i1 %5, label %Gla_ManObj.exit.lr.ph, label %.critedge

Gla_ManObj.exit.lr.ph:                            ; preds = %1
  %6 = getelementptr i8, ptr %3, i64 8
  %.val25 = load ptr, ptr %6, align 8, !tbaa !11
  %7 = getelementptr inbounds nuw i8, ptr %0, i64 40
  %8 = load ptr, ptr %7, align 8, !tbaa !23
  br label %Gla_ManObj.exit

Gla_ManObj.exit:                                  ; preds = %Gla_ManObj.exit.lr.ph, %Gla_ManObj.exit
  %indvars.iv = phi i64 [ 0, %Gla_ManObj.exit.lr.ph ], [ %indvars.iv.next, %Gla_ManObj.exit ]
  %9 = or disjoint i64 %indvars.iv, 1
  %10 = getelementptr inbounds nuw i32, ptr %.val25, i64 %indvars.iv
  %11 = load i32, ptr %10, align 4, !tbaa !22
  %12 = getelementptr inbounds nuw i32, ptr %.val25, i64 %9
  %13 = load i32, ptr %12, align 4, !tbaa !22
  %.not.i = icmp ne i32 %11, 0
  tail call void @llvm.assume(i1 %.not.i)
  %14 = sext i32 %11 to i64
  %15 = getelementptr %struct.Gla_Obj_t_, ptr %8, i64 %14, i32 3, i32 2
  %.val26 = load ptr, ptr %15, align 8, !tbaa !11
  %16 = sext i32 %13 to i64
  %17 = getelementptr inbounds i32, ptr %.val26, i64 %16
  store i32 0, ptr %17, align 4, !tbaa !22
  %indvars.iv.next = add nuw nsw i64 %indvars.iv, 2
  %18 = or disjoint i64 %indvars.iv.next, 1
  %.val22 = load i32, ptr %4, align 4, !tbaa !3
  %19 = sext i32 %.val22 to i64
  %20 = icmp slt i64 %18, %19
  br i1 %20, label %Gla_ManObj.exit, label %.critedge, !llvm.loop !214

.critedge:                                        ; preds = %Gla_ManObj.exit, %1
  %21 = getelementptr inbounds nuw i8, ptr %0, i64 60
  %22 = load i32, ptr %21, align 4, !tbaa !215
  %23 = getelementptr inbounds nuw i8, ptr %0, i64 24
  %24 = load ptr, ptr %23, align 8, !tbaa !12
  %25 = getelementptr i8, ptr %24, i64 4
  %.val32 = load i32, ptr %25, align 4, !tbaa !3
  %26 = icmp slt i32 %22, %.val32
  br i1 %26, label %Gla_ManObj.exit28.lr.ph, label %.critedge2

Gla_ManObj.exit28.lr.ph:                          ; preds = %.critedge
  %27 = getelementptr inbounds nuw i8, ptr %0, i64 40
  %28 = sext i32 %22 to i64
  br label %Gla_ManObj.exit28

Gla_ManObj.exit28:                                ; preds = %Gla_ManObj.exit28.lr.ph, %Gla_ManObj.exit28
  %indvars.iv35 = phi i64 [ %28, %Gla_ManObj.exit28.lr.ph ], [ %indvars.iv.next36, %Gla_ManObj.exit28 ]
  %29 = phi ptr [ %24, %Gla_ManObj.exit28.lr.ph ], [ %38, %Gla_ManObj.exit28 ]
  %30 = getelementptr i8, ptr %29, i64 8
  %.val23 = load ptr, ptr %30, align 8, !tbaa !11
  %31 = getelementptr inbounds i32, ptr %.val23, i64 %indvars.iv35
  %32 = load i32, ptr %31, align 4, !tbaa !22
  %.not.i27 = icmp ne i32 %32, 0
  tail call void @llvm.assume(i1 %.not.i27)
  %33 = load ptr, ptr %27, align 8, !tbaa !23
  %34 = sext i32 %32 to i64
  %35 = getelementptr inbounds %struct.Gla_Obj_t_, ptr %33, i64 %34, i32 1
  %36 = load i32, ptr %35, align 4
  %37 = and i32 %36, -2
  store i32 %37, ptr %35, align 4
  %indvars.iv.next36 = add nsw i64 %indvars.iv35, 1
  %38 = load ptr, ptr %23, align 8, !tbaa !12
  %39 = getelementptr i8, ptr %38, i64 4
  %.val = load i32, ptr %39, align 4, !tbaa !3
  %40 = sext i32 %.val to i64
  %41 = icmp slt i64 %indvars.iv.next36, %40
  br i1 %41, label %Gla_ManObj.exit28, label %.critedge2.loopexit, !llvm.loop !216

.critedge2.loopexit:                              ; preds = %Gla_ManObj.exit28
  %.pre = load i32, ptr %21, align 4, !tbaa !215
  br label %.critedge2

.critedge2:                                       ; preds = %.critedge2.loopexit, %.critedge
  %42 = phi i32 [ %22, %.critedge ], [ %.pre, %.critedge2.loopexit ]
  %.lcssa31 = phi ptr [ %24, %.critedge ], [ %38, %.critedge2.loopexit ]
  %43 = getelementptr i8, ptr %.lcssa31, i64 4
  store i32 %42, ptr %43, align 4, !tbaa !3
  ret void
}